target datalayout = "e-m:e-p270:32:32-p271:32:32-p272:64:64-i64:64-i128:128-f80:128-n8:16:32:64-S128"
target triple = "x86_64-pc-linux-gnu"

%struct.node_data_struct = type { double, ptr, i32, ptr, ptr }

@stderr = external global ptr, align 8
@.str.4 = private unnamed_addr constant [58 x i8] c"integer overflow when trying to allocate %zu * %zu bytes\0A\00", align 1
@.str.5 = private unnamed_addr constant [49 x i8] c"out of memory when trying to allocate %zu bytes\0A\00", align 1

; Function Attrs: inlinehint nounwind uwtable
define internal ptr @gv_calloc(i64 noundef %0, i64 noundef %1) #2 {
  %3 = alloca i64, align 8
  %4 = alloca i64, align 8
  %5 = alloca ptr, align 8
  store i64 %0, ptr %3, align 8, !tbaa !22
  store i64 %1, ptr %4, align 8, !tbaa !22
  %6 = load i64, ptr %3, align 8, !tbaa !22
  %7 = icmp ugt i64 %6, 0
  br i1 %7, label %8, label %18

8:                                                ; preds = %2
  %9 = load i64, ptr %3, align 8, !tbaa !22
  %10 = udiv i64 -1, %9
  %11 = load i64, ptr %4, align 8, !tbaa !22
  %12 = icmp ult i64 %10, %11
  br i1 %12, label %13, label %18

13:                                               ; preds = %8
  %14 = load ptr, ptr @stderr, align 8, !tbaa !24
  %15 = load i64, ptr %3, align 8, !tbaa !22
  %16 = load i64, ptr %4, align 8, !tbaa !22
  %17 = call i32 (ptr, ptr, ...) @fprintf(ptr noundef %14, ptr noundef @.str.4, i64 noundef %15, i64 noundef %16) #11
  call void @graphviz_exit(i32 noundef 1) #12
  unreachable

18:                                               ; preds = %8, %2
  call void @llvm.lifetime.start.p0(i64 8, ptr %5) #11
  %19 = load i64, ptr %3, align 8, !tbaa !22
  %20 = load i64, ptr %4, align 8, !tbaa !22
  %21 = call noalias ptr @calloc(i64 noundef %19, i64 noundef %20) #13
  store ptr %21, ptr %5, align 8, !tbaa !26
  %22 = load i64, ptr %3, align 8, !tbaa !22
  %23 = icmp ugt i64 %22, 0
  br i1 %23, label %24, label %36

24:                                               ; preds = %18
  %25 = load i64, ptr %4, align 8, !tbaa !22
  %26 = icmp ugt i64 %25, 0
  br i1 %26, label %27, label %36

27:                                               ; preds = %24
  %28 = load ptr, ptr %5, align 8, !tbaa !26
  %29 = icmp eq ptr %28, null
  br i1 %29, label %30, label %36

30:                                               ; preds = %27
  %31 = load ptr, ptr @stderr, align 8, !tbaa !24
  %32 = load i64, ptr %3, align 8, !tbaa !22
  %33 = load i64, ptr %4, align 8, !tbaa !22
  %34 = mul i64 %32, %33
  %35 = call i32 (ptr, ptr, ...) @fprintf(ptr noundef %31, ptr noundef @.str.5, i64 noundef %34) #11
  call void @graphviz_exit(i32 noundef 1) #12
  unreachable

36:                                               ; preds = %27, %24, %18
  %37 = load ptr, ptr %5, align 8, !tbaa !26
  call void @llvm.lifetime.end.p0(i64 8, ptr %5) #11
  ret ptr %37
}

; Function Attrs: inlinehint nounwind uwtable
define internal ptr @gv_alloc(i64 noundef %0) #2 {
  %2 = alloca i64, align 8
  store i64 %0, ptr %2, align 8, !tbaa !22
  %3 = load i64, ptr %2, align 8, !tbaa !22
  %4 = call ptr @gv_calloc(i64 noundef 1, i64 noundef %3)
  ret ptr %4
}

; Function Attrs: nounwind uwtable
define internal ptr @node_data_new(i32 noundef %0, double noundef %1, ptr noundef %2, i32 noundef %3) #0 {
  %5 = alloca i32, align 4
  %6 = alloca double, align 8
  %7 = alloca ptr, align 8
  %8 = alloca i32, align 4
  %9 = alloca i32, align 4
  %10 = alloca ptr, align 8
  store i32 %0, ptr %5, align 4, !tbaa !12
  store double %1, ptr %6, align 8, !tbaa !8
  store ptr %2, ptr %7, align 8, !tbaa !10
  store i32 %3, ptr %8, align 4, !tbaa !12
  call void @llvm.lifetime.start.p0(i64 4, ptr %9) #11
  call void @llvm.lifetime.start.p0(i64 8, ptr %10) #11
  %11 = call ptr @gv_alloc(i64 noundef 40)
  store ptr %11, ptr %10, align 8, !tbaa !28
  %12 = load double, ptr %6, align 8, !tbaa !8
  %13 = load ptr, ptr %10, align 8, !tbaa !28
  %14 = getelementptr inbounds nuw %struct.node_data_struct, ptr %13, i32 0, i32 0
  store double %12, ptr %14, align 8, !tbaa !34
  %15 = load i32, ptr %5, align 4, !tbaa !12
  %16 = sext i32 %15 to i64
  %17 = call ptr @gv_calloc(i64 noundef %16, i64 noundef 8)
  %18 = load ptr, ptr %10, align 8, !tbaa !28
  %19 = getelementptr inbounds nuw %struct.node_data_struct, ptr %18, i32 0, i32 1
  store ptr %17, ptr %19, align 8, !tbaa !31
  %20 = load i32, ptr %8, align 4, !tbaa !12
  %21 = load ptr, ptr %10, align 8, !tbaa !28
  %22 = getelementptr inbounds nuw %struct.node_data_struct, ptr %21, i32 0, i32 2
  store i32 %20, ptr %22, align 8, !tbaa !29
  store i32 0, ptr %9, align 4, !tbaa !12
  br label %23

23:                                               ; preds = %39, %4
  %24 = load i32, ptr %9, align 4, !tbaa !12
  %25 = load i32, ptr %5, align 4, !tbaa !12
  %26 = icmp slt i32 %24, %25
  br i1 %26, label %27, label %42

27:                                               ; preds = %23
  %28 = load ptr, ptr %7, align 8, !tbaa !10
  %29 = load i32, ptr %9, align 4, !tbaa !12
  %30 = sext i32 %29 to i64
  %31 = getelementptr inbounds double, ptr %28, i64 %30
  %32 = load double, ptr %31, align 8, !tbaa !8
  %33 = load ptr, ptr %10, align 8, !tbaa !28
  %34 = getelementptr inbounds nuw %struct.node_data_struct, ptr %33, i32 0, i32 1
  %35 = load ptr, ptr %34, align 8, !tbaa !31
  %36 = load i32, ptr %9, align 4, !tbaa !12
  %37 = sext i32 %36 to i64
  %38 = getelementptr inbounds double, ptr %35, i64 %37
  store double %32, ptr %38, align 8, !tbaa !8
  br label %39

39:                                               ; preds = %27
  %40 = load i32, ptr %9, align 4, !tbaa !12
  %41 = add nsw i32 %40, 1
  store i32 %41, ptr %9, align 4, !tbaa !12
  br label %23, !llvm.loop !91

42:                                               ; preds = %23
  %43 = load ptr, ptr %10, align 8, !tbaa !28
  %44 = getelementptr inbounds nuw %struct.node_data_struct, ptr %43, i32 0, i32 3
  store ptr null, ptr %44, align 8, !tbaa !90
  %45 = load ptr, ptr %10, align 8, !tbaa !28
  call void @llvm.lifetime.end.p0(i64 8, ptr %10) #11
  call void @llvm.lifetime.end.p0(i64 4, ptr %9) #11
  ret ptr %45
}