; Function Attrs: nofree nounwind uwtable
define internal fastcc noalias noundef ptr @node_data_new(i32 noundef %0, double noundef %1, ptr noundef readonly captures(none) %2, i32 noundef %3) unnamed_addr #1 {
  %5 = tail call noalias dereferenceable_or_null(40) ptr @calloc(i64 noundef 1, i64 noundef range(i64 8, 81) 40) #15
  %6 = icmp eq ptr %5, null
  br i1 %6, label %7, label %gv_alloc.exit

7:                                                ; preds = %4
  %8 = load ptr, ptr @stderr, align 8, !tbaa !16
  %9 = tail call i32 (ptr, ptr, ...) @fprintf(ptr noundef %8, ptr noundef nonnull @.str.5, i64 noundef 40) #16
  tail call fastcc void @graphviz_exit() #17
  unreachable

gv_alloc.exit:                                    ; preds = %4
  store double %1, ptr %5, align 8, !tbaa !25
  %10 = sext i32 %0 to i64
  %.not.i = icmp eq i32 %0, 0
  br i1 %.not.i, label %gv_calloc.exit, label %11

11:                                               ; preds = %gv_alloc.exit
  %mul.ov.i = icmp slt i32 %0, 0
  br i1 %mul.ov.i, label %12, label %15

12:                                               ; preds = %11
  %13 = load ptr, ptr @stderr, align 8, !tbaa !16
  %14 = tail call i32 (ptr, ptr, ...) @fprintf(ptr noundef %13, ptr noundef nonnull @.str.4, i64 noundef %10, i64 noundef 8) #16
  tail call fastcc void @graphviz_exit() #17
  unreachable

15:                                               ; preds = %11
  %16 = tail call noalias ptr @calloc(i64 noundef %10, i64 noundef 8) #15
  %17 = icmp eq ptr %16, null
  br i1 %17, label %18, label %.lr.ph.preheader

18:                                               ; preds = %15
  %19 = load ptr, ptr @stderr, align 8, !tbaa !16
  %20 = shl nuw nsw i64 %10, 3
  %21 = tail call i32 (ptr, ptr, ...) @fprintf(ptr noundef %19, ptr noundef nonnull @.str.5, i64 noundef %20) #16
  tail call fastcc void @graphviz_exit() #17
  unreachable

gv_calloc.exit:                                   ; preds = %gv_alloc.exit
  %22 = tail call noalias ptr @calloc(i64 noundef 0, i64 noundef 8) #15
  %23 = getelementptr inbounds nuw i8, ptr %5, i64 8
  store ptr %22, ptr %23, align 8, !tbaa !21
  %24 = getelementptr inbounds nuw i8, ptr %5, i64 16
  store i32 %3, ptr %24, align 8, !tbaa !19
  br label %._crit_edge

.lr.ph.preheader:                                 ; preds = %15
  %25 = getelementptr inbounds nuw i8, ptr %5, i64 8
  store ptr %16, ptr %25, align 8, !tbaa !21
  %26 = getelementptr inbounds nuw i8, ptr %5, i64 16
  store i32 %3, ptr %26, align 8, !tbaa !19
  %27 = zext nneg i32 %0 to i64
  %28 = shl nuw nsw i64 %27, 3
  tail call void @llvm.memcpy.p0.p0.i64(ptr nonnull align 8 %16, ptr align 8 %2, i64 %28, i1 false), !tbaa !13
  br label %._crit_edge

._crit_edge:                                      ; preds = %gv_calloc.exit, %.lr.ph.preheader
  ret ptr %5
}